; ModuleID = '29/1331.c'
source_filename = "29/1331.c"
target datalayout = "e-m:e-p270:32:32-p271:32:32-p272:64:64-i64:64-f80:128-n8:16:32:64-S128"
target triple = "x86_64-pc-linux-gnu"

@.str = private unnamed_addr constant [3 x i8] c"%d\00", align 1
@.str.1 = private unnamed_addr constant [7 x i8] c"%.3lf\0A\00", align 1

; Function Attrs: noinline nounwind uwtable
define dso_local i32 @main() #0 {
  %1 = alloca i32, align 4
  %2 = alloca i32, align 4
  %3 = alloca i32, align 4
  %4 = alloca [100 x i32], align 16
  %5 = alloca i32, align 4
  %6 = alloca [100 x double], align 16
  %7 = alloca [100 x double], align 16
  %8 = alloca [100 x double], align 16
  %9 = alloca [100 x double], align 16
  store i32 0, i32* %1, align 4
  %10 = call i32 (i8*, ...) @__isoc99_scanf(i8* getelementptr inbounds ([3 x i8], [3 x i8]* @.str, i64 0, i64 0), i32* %2)
  store i32 2, i32* %3, align 4
  br label %11

11:                                               ; preds = %47, %0
  %12 = load i32, i32* %3, align 4
  %13 = icmp slt i32 %12, 100
  br i1 %13, label %14, label %50

14:                                               ; preds = %11
  %15 = getelementptr inbounds [100 x double], [100 x double]* %8, i64 0, i64 0
  store double 2.000000e+00, double* %15, align 16
  %16 = getelementptr inbounds [100 x double], [100 x double]* %9, i64 0, i64 0
  store double 1.000000e+00, double* %16, align 16
  %17 = getelementptr inbounds [100 x double], [100 x double]* %8, i64 0, i64 1
  store double 3.000000e+00, double* %17, align 8
  %18 = getelementptr inbounds [100 x double], [100 x double]* %9, i64 0, i64 1
  store double 2.000000e+00, double* %18, align 8
  %19 = load i32, i32* %3, align 4
  %20 = sub nsw i32 %19, 1
  %21 = sext i32 %20 to i64
  %22 = getelementptr inbounds [100 x double], [100 x double]* %8, i64 0, i64 %21
  %23 = load double, double* %22, align 8
  %24 = load i32, i32* %3, align 4
  %25 = sub nsw i32 %24, 2
  %26 = sext i32 %25 to i64
  %27 = getelementptr inbounds [100 x double], [100 x double]* %8, i64 0, i64 %26
  %28 = load double, double* %27, align 8
  %29 = fadd double %23, %28
  %30 = load i32, i32* %3, align 4
  %31 = sext i32 %30 to i64
  %32 = getelementptr inbounds [100 x double], [100 x double]* %8, i64 0, i64 %31
  store double %29, double* %32, align 8
  %33 = load i32, i32* %3, align 4
  %34 = sub nsw i32 %33, 1
  %35 = sext i32 %34 to i64
  %36 = getelementptr inbounds [100 x double], [100 x double]* %9, i64 0, i64 %35
  %37 = load double, double* %36, align 8
  %38 = load i32, i32* %3, align 4
  %39 = sub nsw i32 %38, 2
  %40 = sext i32 %39 to i64
  %41 = getelementptr inbounds [100 x double], [100 x double]* %9, i64 0, i64 %40
  %42 = load double, double* %41, align 8
  %43 = fadd double %37, %42
  %44 = load i32, i32* %3, align 4
  %45 = sext i32 %44 to i64
  %46 = getelementptr inbounds [100 x double], [100 x double]* %9, i64 0, i64 %45
  store double %43, double* %46, align 8
  br label %47

47:                                               ; preds = %14
  %48 = load i32, i32* %3, align 4
  %49 = add nsw i32 %48, 1
  store i32 %49, i32* %3, align 4
  br label %11

50:                                               ; preds = %11
  store i32 0, i32* %3, align 4
  br label %51

51:                                               ; preds = %60, %50
  %52 = load i32, i32* %3, align 4
  %53 = load i32, i32* %2, align 4
  %54 = icmp slt i32 %52, %53
  br i1 %54, label %55, label %63

55:                                               ; preds = %51
  %56 = load i32, i32* %3, align 4
  %57 = sext i32 %56 to i64
  %58 = getelementptr inbounds [100 x i32], [100 x i32]* %4, i64 0, i64 %57
  %59 = call i32 (i8*, ...) @__isoc99_scanf(i8* getelementptr inbounds ([3 x i8], [3 x i8]* @.str, i64 0, i64 0), i32* %58)
  br label %60

60:                                               ; preds = %55
  %61 = load i32, i32* %3, align 4
  %62 = add nsw i32 %61, 1
  store i32 %62, i32* %3, align 4
  br label %51

63:                                               ; preds = %51
  store i32 0, i32* %5, align 4
  br label %64

64:                                               ; preds = %113, %63
  %65 = load i32, i32* %5, align 4
  %66 = load i32, i32* %2, align 4
  %67 = icmp slt i32 %65, %66
  br i1 %67, label %68, label %116

68:                                               ; preds = %64
  %69 = getelementptr inbounds [100 x double], [100 x double]* %7, i64 0, i64 0
  store double 0.000000e+00, double* %69, align 16
  store i32 0, i32* %3, align 4
  br label %70

70:                                               ; preds = %100, %68
  %71 = load i32, i32* %3, align 4
  %72 = load i32, i32* %5, align 4
  %73 = sext i32 %72 to i64
  %74 = getelementptr inbounds [100 x i32], [100 x i32]* %4, i64 0, i64 %73
  %75 = load i32, i32* %74, align 4
  %76 = icmp slt i32 %71, %75
  br i1 %76, label %77, label %103

77:                                               ; preds = %70
  %78 = load i32, i32* %3, align 4
  %79 = sext i32 %78 to i64
  %80 = getelementptr inbounds [100 x double], [100 x double]* %8, i64 0, i64 %79
  %81 = load double, double* %80, align 8
  %82 = fmul double 1.000000e+00, %81
  %83 = load i32, i32* %3, align 4
  %84 = sext i32 %83 to i64
  %85 = getelementptr inbounds [100 x double], [100 x double]* %9, i64 0, i64 %84
  %86 = load double, double* %85, align 8
  %87 = fdiv double %82, %86
  %88 = load i32, i32* %3, align 4
  %89 = sext i32 %88 to i64
  %90 = getelementptr inbounds [100 x double], [100 x double]* %6, i64 0, i64 %89
  store double %87, double* %90, align 8
  %91 = load i32, i32* %3, align 4
  %92 = sext i32 %91 to i64
  %93 = getelementptr inbounds [100 x double], [100 x double]* %6, i64 0, i64 %92
  %94 = load double, double* %93, align 8
  %95 = load i32, i32* %5, align 4
  %96 = sext i32 %95 to i64
  %97 = getelementptr inbounds [100 x double], [100 x double]* %7, i64 0, i64 %96
  %98 = load double, double* %97, align 8
  %99 = fadd double %98, %94
  store double %99, double* %97, align 8
  br label %100

100:                                              ; preds = %77
  %101 = load i32, i32* %3, align 4
  %102 = add nsw i32 %101, 1
  store i32 %102, i32* %3, align 4
  br label %70

103:                                              ; preds = %70
  %104 = load i32, i32* %5, align 4
  %105 = sext i32 %104 to i64
  %106 = getelementptr inbounds [100 x double], [100 x double]* %7, i64 0, i64 %105
  %107 = load double, double* %106, align 8
  %108 = call i32 (i8*, ...) @printf(i8* getelementptr inbounds ([7 x i8], [7 x i8]* @.str.1, i64 0, i64 0), double %107)
  %109 = load i32, i32* %5, align 4
  %110 = add nsw i32 %109, 1
  %111 = sext i32 %110 to i64
  %112 = getelementptr inbounds [100 x double], [100 x double]* %7, i64 0, i64 %111
  store double 0.000000e+00, double* %112, align 8
  br label %113

113:                                              ; preds = %103
  %114 = load i32, i32* %5, align 4
  %115 = add nsw i32 %114, 1
  store i32 %115, i32* %5, align 4
  br label %64

116:                                              ; preds = %64
  ret i32 0
}

declare dso_local i32 @__isoc99_scanf(i8*, ...) #1

declare dso_local i32 @printf(i8*, ...) #1


!llvm.module.flags = !{!0}
!llvm.ident = !{!1}

!0 = !{i32 1, !"wchar_size", i32 4}
!1 = !{!"clang version 10.0.0-4ubuntu1 "}
